; Function Attrs: nounwind sspstrong uwtable
define internal range(i64 0, 21) i64 @rb_reg_match_m_p(i32 noundef %0, ptr noundef readonly captures(none) %1, i64 noundef %2) #2 {
  %4 = add i32 %0, -3
  %or.cond.i = icmp ult i32 %4, -2
  br i1 %or.cond.i, label %5, label %rb_check_arity.exit

5:                                                ; preds = %3
  tail call void @rb_error_arity(i32 noundef %0, i32 noundef 1, i32 noundef 2) #30
  unreachable

rb_check_arity.exit:                              ; preds = %3
  %6 = icmp samesign ugt i32 %0, 1
  br i1 %6, label %7, label %rb_num2long_inline.exit

7:                                                ; preds = %rb_check_arity.exit
  %8 = getelementptr i8, ptr %1, i64 8
  %9 = load i64, ptr %8, align 8, !tbaa !18
  %10 = and i64 %9, 1
  %.not.i = icmp eq i64 %10, 0
  br i1 %.not.i, label %13, label %11

11:                                               ; preds = %7
  %12 = ashr i64 %9, 1
  br label %rb_num2long_inline.exit

13:                                               ; preds = %7
  %14 = tail call i64 @rb_num2long(i64 noundef %9) #29
  br label %rb_num2long_inline.exit

rb_num2long_inline.exit:                          ; preds = %13, %11, %rb_check_arity.exit
  %15 = phi i64 [ 0, %rb_check_arity.exit ], [ %12, %11 ], [ %14, %13 ]
  %16 = load i64, ptr %1, align 8, !tbaa !18
  %17 = tail call i64 @rb_reg_match_p(i64 noundef %2, i64 noundef %16, i64 noundef %15)
  ret i64 %17
}